target datalayout = "e-m:e-p270:32:32-p271:32:32-p272:64:64-i64:64-i128:128-f80:128-n8:16:32:64-S128"
target triple = "x86_64-pc-linux-gnu"

%"class.cv::Rect_" = type { float, float, float, float }

; Function Attrs: inlinehint mustprogress nounwind uwtable
define linkonce_odr noundef float @_ZSt4sqrtf(float noundef %0) #4 comdat {
  %2 = alloca float, align 4
  store float %0, ptr %2, align 4, !tbaa !26
  %3 = load float, ptr %2, align 4, !tbaa !26
  %4 = call float @sqrtf(float noundef %3) #15, !tbaa !24
  ret float %4
}

; Function Attrs: mustprogress uwtable
define hidden noundef float @_ZN3vas2ot17ObjectsAssociator23NormalizedShapeDistanceERKN2cv5Rect_IfEES6_(ptr noundef nonnull align 4 dereferenceable(16) %0, ptr noundef nonnull align 4 dereferenceable(16) %1) #2 align 2 {
  %3 = alloca ptr, align 8
  %4 = alloca ptr, align 8
  %5 = alloca i32, align 4
  %6 = alloca i32, align 4
  %7 = alloca float, align 4
  %8 = alloca float, align 4
  store ptr %0, ptr %3, align 8, !tbaa !108
  store ptr %1, ptr %4, align 8, !tbaa !108
  call void @llvm.lifetime.start.p0(i64 4, ptr %5) #15
  %9 = load ptr, ptr %3, align 8, !tbaa !108
  %10 = getelementptr inbounds nuw %"class.cv::Rect_", ptr %9, i32 0, i32 2
  %11 = load float, ptr %10, align 4, !tbaa !109
  %12 = fptosi float %11 to i32
  store i32 %12, ptr %5, align 4, !tbaa !24
  call void @llvm.lifetime.start.p0(i64 4, ptr %6) #15
  %13 = load ptr, ptr %3, align 8, !tbaa !108
  %14 = getelementptr inbounds nuw %"class.cv::Rect_", ptr %13, i32 0, i32 3
  %15 = load float, ptr %14, align 4, !tbaa !110
  %16 = fptosi float %15 to i32
  store i32 %16, ptr %6, align 4, !tbaa !24
  %17 = load ptr, ptr %4, align 8, !tbaa !108
  %18 = getelementptr inbounds nuw %"class.cv::Rect_", ptr %17, i32 0, i32 2
  %19 = load float, ptr %18, align 4, !tbaa !109
  %20 = load ptr, ptr %4, align 8, !tbaa !108
  %21 = getelementptr inbounds nuw %"class.cv::Rect_", ptr %20, i32 0, i32 3
  %22 = load float, ptr %21, align 4, !tbaa !110
  %23 = fadd float %19, %22
  %24 = load ptr, ptr %3, align 8, !tbaa !108
  %25 = getelementptr inbounds nuw %"class.cv::Rect_", ptr %24, i32 0, i32 2
  %26 = load float, ptr %25, align 4, !tbaa !109
  %27 = load ptr, ptr %3, align 8, !tbaa !108
  %28 = getelementptr inbounds nuw %"class.cv::Rect_", ptr %27, i32 0, i32 3
  %29 = load float, ptr %28, align 4, !tbaa !110
  %30 = fadd float %26, %29
  %31 = fcmp olt float %23, %30
  br i1 %31, label %32, label %41

32:                                               ; preds = %2
  %33 = load ptr, ptr %4, align 8, !tbaa !108
  %34 = getelementptr inbounds nuw %"class.cv::Rect_", ptr %33, i32 0, i32 2
  %35 = load float, ptr %34, align 4, !tbaa !109
  %36 = fptosi float %35 to i32
  store i32 %36, ptr %5, align 4, !tbaa !24
  %37 = load ptr, ptr %4, align 8, !tbaa !108
  %38 = getelementptr inbounds nuw %"class.cv::Rect_", ptr %37, i32 0, i32 3
  %39 = load float, ptr %38, align 4, !tbaa !110
  %40 = fptosi float %39 to i32
  store i32 %40, ptr %6, align 4, !tbaa !24
  br label %41

41:                                               ; preds = %32, %2
  call void @llvm.lifetime.start.p0(i64 4, ptr %7) #15
  %42 = load ptr, ptr %4, align 8, !tbaa !108
  %43 = getelementptr inbounds nuw %"class.cv::Rect_", ptr %42, i32 0, i32 2
  %44 = load float, ptr %43, align 4, !tbaa !109
  %45 = load ptr, ptr %3, align 8, !tbaa !108
  %46 = getelementptr inbounds nuw %"class.cv::Rect_", ptr %45, i32 0, i32 2
  %47 = load float, ptr %46, align 4, !tbaa !109
  %48 = fsub float %44, %47
  %49 = load i32, ptr %5, align 4, !tbaa !24
  %50 = sitofp i32 %49 to float
  %51 = fdiv float %48, %50
  store float %51, ptr %7, align 4, !tbaa !26
  call void @llvm.lifetime.start.p0(i64 4, ptr %8) #15
  %52 = load ptr, ptr %4, align 8, !tbaa !108
  %53 = getelementptr inbounds nuw %"class.cv::Rect_", ptr %52, i32 0, i32 3
  %54 = load float, ptr %53, align 4, !tbaa !110
  %55 = load ptr, ptr %3, align 8, !tbaa !108
  %56 = getelementptr inbounds nuw %"class.cv::Rect_", ptr %55, i32 0, i32 3
  %57 = load float, ptr %56, align 4, !tbaa !110
  %58 = fsub float %54, %57
  %59 = load i32, ptr %6, align 4, !tbaa !24
  %60 = sitofp i32 %59 to float
  %61 = fdiv float %58, %60
  store float %61, ptr %8, align 4, !tbaa !26
  %62 = load float, ptr %7, align 4, !tbaa !26
  %63 = load float, ptr %7, align 4, !tbaa !26
  %64 = load float, ptr %8, align 4, !tbaa !26
  %65 = load float, ptr %8, align 4, !tbaa !26
  %66 = fmul float %64, %65
  %67 = call float @llvm.fmuladd.f32(float %62, float %63, float %66)
  %68 = call noundef float @_ZSt4sqrtf(float noundef %67)
  call void @llvm.lifetime.end.p0(i64 4, ptr %8) #15
  call void @llvm.lifetime.end.p0(i64 4, ptr %7) #15
  call void @llvm.lifetime.end.p0(i64 4, ptr %6) #15
  call void @llvm.lifetime.end.p0(i64 4, ptr %5) #15
  ret float %68
}