; Function Attrs: mustprogress nofree norecurse nosync nounwind willreturn memory(argmem: read) uwtable
define hidden noundef float @_ZN3vas2ot17ObjectsAssociator23NormalizedShapeDistanceERKN2cv5Rect_IfEES6_(ptr noundef nonnull readonly align 4 captures(none) dereferenceable(16) %0, ptr noundef nonnull readonly align 4 captures(none) dereferenceable(16) %1) local_unnamed_addr #6 align 2 {
  %3 = getelementptr inbounds nuw i8, ptr %0, i64 8
  %4 = load float, ptr %3, align 4, !tbaa !75
  %5 = getelementptr inbounds nuw i8, ptr %0, i64 12
  %6 = load float, ptr %5, align 4, !tbaa !76
  %7 = getelementptr inbounds nuw i8, ptr %1, i64 8
  %8 = load float, ptr %7, align 4, !tbaa !75
  %9 = getelementptr inbounds nuw i8, ptr %1, i64 12
  %10 = load float, ptr %9, align 4, !tbaa !76
  %11 = fadd float %8, %10
  %12 = fadd float %4, %6
  %13 = fcmp olt float %11, %12
  %.017.in = select i1 %13, float %10, float %6
  %.0.in = select i1 %13, float %8, float %4
  %.0 = fptosi float %.0.in to i32
  %.017 = fptosi float %.017.in to i32
  %14 = fsub float %8, %4
  %15 = sitofp i32 %.0 to float
  %16 = fdiv float %14, %15
  %17 = fsub float %10, %6
  %18 = sitofp i32 %.017 to float
  %19 = fdiv float %17, %18
  %20 = fmul float %19, %19
  %21 = tail call float @llvm.fmuladd.f32(float %16, float %16, float %20)
  %sqrt = tail call float @llvm.sqrt.f32(float %21)
  ret float %sqrt
}